target datalayout = "e-m:e-p270:32:32-p271:32:32-p272:64:64-i64:64-i128:128-f80:128-n8:16:32:64-S128"
target triple = "x86_64-pc-linux-gnu"

%struct.redisServer = type { i32, i64, ptr, ptr, ptr, i32, i32, i32, i32, i32, ptr, ptr, ptr, ptr, ptr, i32, i32, i32, i32, i64, i32, i32, i32, i32, ptr, i32, i32, [41 x i8], i32, i64, i32, i32, i32, ptr, ptr, i32, i32, i64, ptr, ptr, ptr, ptr, [2 x i32], i32, i32, i32, i32, i32, i32, [16 x ptr], i32, ptr, ptr, i32, [8 x %struct.connListener], i32, %struct.connListener, ptr, ptr, ptr, ptr, ptr, ptr, ptr, ptr, ptr, ptr, i32, ptr, i32, ptr, [3 x %struct.pause_event], [256 x i8], ptr, i64, i32, i32, [128 x i32], i32, i32, i64, i32, i32, i32, i32, i32, i64, i64, i64, i64, i64, i64, i64, i64, i64, i64, double, i64, i64, i64, i64, i64, i64, i64, i64, i64, i64, i64, i64, i64, i64, i64, i64, i64, i64, i64, i64, i64, double, i64, i64, i64, i64, i64, ptr, i64, i64, i64, %struct.malloc_stats, i64, i64, i64, i64, i64, i64, i64, i64, i64, i64, i64, i64, double, [4 x i64], i64, i64, i64, i64, [128 x i64], [128 x i64], i64, i64, [7 x %struct.anon], i64, i64, i64, i64, i64, i64, [4 x %struct.durationStats], i32, i32, i32, i32, i32, i32, i32, i32, i32, i32, i32, i32, i64, i32, i32, i32, i32, i64, i64, i32, i32, i32, i32, i32, ptr, [3 x %struct.clientBufferLimitsConfig], i32, i32, i32, ptr, i32, i32, i32, i32, i32, i32, ptr, ptr, i32, i32, i64, i64, i64, i64, i64, i32, i32, ptr, i32, i32, i64, i64, i64, i64, i64, i32, i32, i64, i32, i32, i32, i32, i32, i32, i32, i32, ptr, i32, i64, i64, i64, i64, i32, ptr, i32, ptr, i32, i32, i32, i64, i64, i64, i64, i32, i32, i32, i32, i32, i32, ptr, i32, i32, ptr, i32, i32, i32, [2 x i32], i32, %struct.redisOpArray, i32, ptr, i32, ptr, i32, i32, i32, i32, i32, i32, i32, [41 x i8], [41 x i8], i64, i64, i64, i64, i32, i32, ptr, i64, i64, %struct.replDataBuf, i64, i64, i32, i32, i32, i32, i32, i32, i32, i32, i32, i64, ptr, i64, ptr, ptr, ptr, i32, i32, ptr, ptr, i32, i32, i32, i64, i64, i64, i64, ptr, ptr, i32, ptr, i64, i32, i32, i32, i64, i32, i32, i32, i32, ptr, i32, i32, [41 x i8], i64, i32, ptr, i32, i32, i64, i64, i32, i32, i32, i32, i32, i64, [3 x i32], i32, i32, i32, [10 x i32], ptr, ptr, i32, i64, ptr, ptr, i32, i32, i32, i32, i64, i64, i64, i64, i64, i64, i64, i64, i64, i64, i32, i32, i64, i64, i32, i64, i64, i64, i64, i64, ptr, ptr, i32, ptr, i32, i32, i32, i32, i64, i64, ptr, ptr, i32, i32, i32, i32, i32, ptr, ptr, ptr, i32, i32, i32, i32, i32, i32, i32, i64, i32, i32, i64, i32, i32, i32, i32, i32, i32, i32, i64, ptr, ptr, i64, ptr, i32, %struct.aclInfo, i32, i64, i32, i32, i32, %struct.redisTLSContextConfig, ptr, ptr, ptr, ptr, ptr, i64, i32, ptr, i32, i32, i32, i64, i32, ptr }
%struct.connListener = type { [16 x i32], i32, ptr, i32, i32, ptr, ptr }
%struct.pause_event = type { i32, i64 }
%struct.malloc_stats = type { i64, i64, i64, i64, i64, i64, i64, i64, i64, i64, i64 }
%struct.anon = type { i64, i64, [16 x i64], i32 }
%struct.durationStats = type { i64, i64, i64 }
%struct.clientBufferLimitsConfig = type { i64, i64, i64 }
%struct.redisOpArray = type { ptr, i32, i32 }
%struct.replDataBuf = type { ptr, i64, i64, i64, i64 }
%struct.aclInfo = type { i64, i64, i64, i64 }
%struct.redisTLSContextConfig = type { ptr, ptr, ptr, ptr, ptr, ptr, ptr, ptr, ptr, ptr, ptr, ptr, i32, i32, i32, i32 }
%struct.client = type { i64, i64, ptr, i8, i8, i8, i8, i32, ptr, ptr, ptr, ptr, ptr, i64, i64, i32, ptr, i32, i32, ptr, i64, ptr, ptr, ptr, ptr, ptr, i32, i32, i64, ptr, i64, ptr, i64, i64, i64, i32, ptr, i64, i64, i32, i32, i32, i32, i64, i64, ptr, i64, i64, i64, i64, i64, i64, i64, i64, [41 x i8], i32, ptr, i32, i32, i64, %struct.multiState, %struct.blockingState, i64, ptr, ptr, ptr, ptr, ptr, ptr, ptr, ptr, ptr, ptr, ptr, ptr, ptr, ptr, i64, ptr, i64, i32, ptr, ptr, ptr, i64, %struct.listNode, i64, i64, i32, i64, ptr }
%struct.multiState = type { ptr, i32, i32, i32, i64, i32 }
%struct.blockingState = type { i32, i64, i32, ptr, i32, i32, i64, ptr, ptr, i64 }
%struct.listNode = type { ptr, ptr, ptr }
%struct.dict = type { ptr, [2 x ptr], [2 x i64], i64, i16, [2 x i8], i16, [0 x ptr] }
%struct.pubsubtype = type { i32, ptr, ptr, ptr, ptr, ptr, ptr }

@server = external global %struct.redisServer, align 8

; Function Attrs: nounwind uwtable
define dso_local i32 @clientShardSubscriptionsCount(ptr noundef %0) #0 {
  %2 = alloca ptr, align 8
  store ptr %0, ptr %2, align 8, !tbaa !5
  %3 = load ptr, ptr %2, align 8, !tbaa !5
  %4 = getelementptr inbounds nuw %struct.client, ptr %3, i32 0, i32 66
  %5 = load ptr, ptr %4, align 8, !tbaa !32
  %6 = getelementptr inbounds nuw %struct.dict, ptr %5, i32 0, i32 2
  %7 = getelementptr inbounds [2 x i64], ptr %6, i64 0, i64 0
  %8 = load i64, ptr %7, align 8, !tbaa !30
  %9 = load ptr, ptr %2, align 8, !tbaa !5
  %10 = getelementptr inbounds nuw %struct.client, ptr %9, i32 0, i32 66
  %11 = load ptr, ptr %10, align 8, !tbaa !32
  %12 = getelementptr inbounds nuw %struct.dict, ptr %11, i32 0, i32 2
  %13 = getelementptr inbounds [2 x i64], ptr %12, i64 0, i64 1
  %14 = load i64, ptr %13, align 8, !tbaa !30
  %15 = add i64 %8, %14
  %16 = trunc i64 %15 to i32
  ret i32 %16
}

; Function Attrs: nounwind uwtable
define dso_local i32 @clientSubscriptionsCount(ptr noundef %0) #0 {
  %2 = alloca ptr, align 8
  store ptr %0, ptr %2, align 8, !tbaa !5
  %3 = load ptr, ptr %2, align 8, !tbaa !5
  %4 = getelementptr inbounds nuw %struct.client, ptr %3, i32 0, i32 64
  %5 = load ptr, ptr %4, align 8, !tbaa !10
  %6 = getelementptr inbounds nuw %struct.dict, ptr %5, i32 0, i32 2
  %7 = getelementptr inbounds [2 x i64], ptr %6, i64 0, i64 0
  %8 = load i64, ptr %7, align 8, !tbaa !30
  %9 = load ptr, ptr %2, align 8, !tbaa !5
  %10 = getelementptr inbounds nuw %struct.client, ptr %9, i32 0, i32 64
  %11 = load ptr, ptr %10, align 8, !tbaa !10
  %12 = getelementptr inbounds nuw %struct.dict, ptr %11, i32 0, i32 2
  %13 = getelementptr inbounds [2 x i64], ptr %12, i64 0, i64 1
  %14 = load i64, ptr %13, align 8, !tbaa !30
  %15 = add i64 %8, %14
  %16 = load ptr, ptr %2, align 8, !tbaa !5
  %17 = getelementptr inbounds nuw %struct.client, ptr %16, i32 0, i32 65
  %18 = load ptr, ptr %17, align 8, !tbaa !31
  %19 = getelementptr inbounds nuw %struct.dict, ptr %18, i32 0, i32 2
  %20 = getelementptr inbounds [2 x i64], ptr %19, i64 0, i64 0
  %21 = load i64, ptr %20, align 8, !tbaa !30
  %22 = load ptr, ptr %2, align 8, !tbaa !5
  %23 = getelementptr inbounds nuw %struct.client, ptr %22, i32 0, i32 65
  %24 = load ptr, ptr %23, align 8, !tbaa !31
  %25 = getelementptr inbounds nuw %struct.dict, ptr %24, i32 0, i32 2
  %26 = getelementptr inbounds [2 x i64], ptr %25, i64 0, i64 1
  %27 = load i64, ptr %26, align 8, !tbaa !30
  %28 = add i64 %21, %27
  %29 = add i64 %15, %28
  %30 = trunc i64 %29 to i32
  ret i32 %30
}

; Function Attrs: nounwind uwtable
define dso_local void @unmarkClientAsPubSub(ptr noundef %0) #0 {
  %2 = alloca ptr, align 8
  store ptr %0, ptr %2, align 8, !tbaa !5
  %3 = load ptr, ptr %2, align 8, !tbaa !5
  %4 = getelementptr inbounds nuw %struct.client, ptr %3, i32 0, i32 1
  %5 = load i64, ptr %4, align 8, !tbaa !34
  %6 = and i64 %5, 262144
  %7 = icmp ne i64 %6, 0
  br i1 %7, label %8, label %15

8:                                                ; preds = %1
  %9 = load ptr, ptr %2, align 8, !tbaa !5
  %10 = getelementptr inbounds nuw %struct.client, ptr %9, i32 0, i32 1
  %11 = load i64, ptr %10, align 8, !tbaa !34
  %12 = and i64 %11, -262145
  store i64 %12, ptr %10, align 8, !tbaa !34
  %13 = load i32, ptr getelementptr inbounds nuw (%struct.redisServer, ptr @server, i32 0, i32 378), align 8, !tbaa !67
  %14 = add i32 %13, -1
  store i32 %14, ptr getelementptr inbounds nuw (%struct.redisServer, ptr @server, i32 0, i32 378), align 8, !tbaa !67
  br label %15

15:                                               ; preds = %8, %1
  ret void
}

; Function Attrs: nounwind uwtable
define dso_local i32 @clientTotalPubSubSubscriptionCount(ptr noundef %0) #0 {
  %2 = alloca ptr, align 8
  store ptr %0, ptr %2, align 8, !tbaa !5
  %3 = load ptr, ptr %2, align 8, !tbaa !5
  %4 = call i32 @clientSubscriptionsCount(ptr noundef %3)
  %5 = load ptr, ptr %2, align 8, !tbaa !5
  %6 = call i32 @clientShardSubscriptionsCount(ptr noundef %5)
  %7 = add nsw i32 %4, %6
  ret i32 %7
}

; Function Attrs: nounwind uwtable
define dso_local i32 @pubsubUnsubscribeAllChannels(ptr noundef %0, i32 noundef %1) #0 {
  %3 = alloca ptr, align 8
  %4 = alloca i32, align 4
  %5 = alloca i32, align 4
  store ptr %0, ptr %3, align 8, !tbaa !5
  store i32 %1, ptr %4, align 4, !tbaa !69
  call void @llvm.lifetime.start.p0(i64 4, ptr %5) #8
  %6 = load ptr, ptr %3, align 8, !tbaa !5
  %7 = load i32, ptr %4, align 4, !tbaa !69
  %8 = call i32 @pubsubUnsubscribeAllChannelsInternal(ptr noundef %6, i32 noundef %7, ptr noundef byval(%struct.pubsubtype) align 8 @pubSubType)
  store i32 %8, ptr %5, align 4, !tbaa !69
  %9 = load i32, ptr %5, align 4, !tbaa !69
  call void @llvm.lifetime.end.p0(i64 4, ptr %5) #8
  ret i32 %9
}

; Function Attrs: nounwind uwtable
define dso_local void @unsubscribeCommand(ptr noundef %0) #0 {
  %2 = alloca ptr, align 8
  %3 = alloca i32, align 4
  store ptr %0, ptr %2, align 8, !tbaa !5
  %4 = load ptr, ptr %2, align 8, !tbaa !5
  %5 = getelementptr inbounds nuw %struct.client, ptr %4, i32 0, i32 15
  %6 = load i32, ptr %5, align 8, !tbaa !101
  %7 = icmp eq i32 %6, 1
  br i1 %7, label %8, label %11

8:                                                ; preds = %1
  %9 = load ptr, ptr %2, align 8, !tbaa !5
  %10 = call i32 @pubsubUnsubscribeAllChannels(ptr noundef %9, i32 noundef 1)
  br label %32

11:                                               ; preds = %1
  call void @llvm.lifetime.start.p0(i64 4, ptr %3) #8
  store i32 1, ptr %3, align 4, !tbaa !69
  br label %12

12:                                               ; preds = %28, %11
  %13 = load i32, ptr %3, align 4, !tbaa !69
  %14 = load ptr, ptr %2, align 8, !tbaa !5
  %15 = getelementptr inbounds nuw %struct.client, ptr %14, i32 0, i32 15
  %16 = load i32, ptr %15, align 8, !tbaa !101
  %17 = icmp slt i32 %13, %16
  br i1 %17, label %18, label %31

18:                                               ; preds = %12
  %19 = load ptr, ptr %2, align 8, !tbaa !5
  %20 = load ptr, ptr %2, align 8, !tbaa !5
  %21 = getelementptr inbounds nuw %struct.client, ptr %20, i32 0, i32 16
  %22 = load ptr, ptr %21, align 8, !tbaa !102
  %23 = load i32, ptr %3, align 4, !tbaa !69
  %24 = sext i32 %23 to i64
  %25 = getelementptr inbounds ptr, ptr %22, i64 %24
  %26 = load ptr, ptr %25, align 8, !tbaa !33
  %27 = call i32 @pubsubUnsubscribeChannel(ptr noundef %19, ptr noundef %26, i32 noundef 1, ptr noundef byval(%struct.pubsubtype) align 8 @pubSubType)
  br label %28

28:                                               ; preds = %18
  %29 = load i32, ptr %3, align 4, !tbaa !69
  %30 = add nsw i32 %29, 1
  store i32 %30, ptr %3, align 4, !tbaa !69
  br label %12, !llvm.loop !104

31:                                               ; preds = %12
  call void @llvm.lifetime.end.p0(i64 4, ptr %3) #8
  br label %32

32:                                               ; preds = %31, %8
  %33 = load ptr, ptr %2, align 8, !tbaa !5
  %34 = call i32 @clientTotalPubSubSubscriptionCount(ptr noundef %33)
  %35 = icmp eq i32 %34, 0
  br i1 %35, label %36, label %38

36:                                               ; preds = %32
  %37 = load ptr, ptr %2, align 8, !tbaa !5
  call void @unmarkClientAsPubSub(ptr noundef %37)
  br label %38

38:                                               ; preds = %36, %32
  ret void
}